; Function Attrs: nounwind uwtable
define dso_local range(i32 0, 2) i32 @KeccakWidth1600_SpongeAbsorbLastFewBits(ptr noundef %0, i8 noundef zeroext %1) local_unnamed_addr #0 {
  %3 = getelementptr inbounds nuw i8, ptr %0, i64 200
  %4 = load i32, ptr %3, align 8
  %5 = lshr i32 %4, 3
  %6 = icmp eq i8 %1, 0
  br i1 %6, label %28, label %7

7:                                                ; preds = %2
  %8 = getelementptr inbounds nuw i8, ptr %0, i64 208
  %9 = load i32, ptr %8, align 8
  %.not = icmp eq i32 %9, 0
  br i1 %.not, label %10, label %28

10:                                               ; preds = %7
  %11 = getelementptr inbounds nuw i8, ptr %0, i64 204
  %12 = load i32, ptr %11, align 4
  %13 = zext i32 %12 to i64
  %14 = getelementptr inbounds nuw i8, ptr %0, i64 %13
  %15 = load i8, ptr %14, align 1
  %16 = xor i8 %15, %1
  store i8 %16, ptr %14, align 1
  %17 = icmp slt i8 %1, 0
  br i1 %17, label %18, label %._crit_edge

._crit_edge:                                      ; preds = %10
  %.pre = add nsw i32 %5, -1
  br label %23

18:                                               ; preds = %10
  %19 = load i32, ptr %11, align 4
  %20 = add nsw i32 %5, -1
  %21 = icmp eq i32 %19, %20
  br i1 %21, label %22, label %23

22:                                               ; preds = %18
  tail call void @KeccakP1600_Permute_24rounds(ptr noundef nonnull %0) #3
  br label %23

23:                                               ; preds = %._crit_edge, %22, %18
  %.pre-phi = phi i32 [ %.pre, %._crit_edge ], [ %20, %22 ], [ %20, %18 ]
  %24 = zext i32 %.pre-phi to i64
  %25 = getelementptr inbounds nuw i8, ptr %0, i64 %24
  %26 = load i8, ptr %25, align 1
  %27 = xor i8 %26, -128
  store i8 %27, ptr %25, align 1
  tail call void @KeccakP1600_Permute_24rounds(ptr noundef nonnull %0) #3
  store i32 0, ptr %11, align 4
  store i32 1, ptr %8, align 8
  br label %28

28:                                               ; preds = %7, %2, %23
  %.0 = phi i32 [ 0, %23 ], [ 1, %2 ], [ 1, %7 ]
  ret i32 %.0
}